target datalayout = "e-m:e-p270:32:32-p271:32:32-p272:64:64-i64:64-i128:128-f80:128-n8:16:32:64-S128"
target triple = "x86_64-pc-linux-gnu"

; Function Attrs: mustprogress nounwind uwtable
define internal noundef i64 @_ZL15VL_EXTENDSIGN_Qim(i32 noundef %0, i64 noundef %1) #1 {
  %3 = alloca i32, align 4
  %4 = alloca i64, align 8
  store i32 %0, ptr %3, align 4
  store i64 %1, ptr %4, align 8
  %5 = load i64, ptr %4, align 8
  %6 = load i32, ptr %3, align 4
  %7 = sub nsw i32 %6, 1
  %8 = zext i32 %7 to i64
  %9 = shl i64 1, %8
  %10 = and i64 %5, %9
  %11 = sub i64 0, %10
  ret i64 %11
}

; Function Attrs: mustprogress uwtable
define internal noundef i64 @_ZL13VL_EXTENDS_QQiim(i32 noundef %0, i32 noundef %1, i64 noundef %2) #0 {
  %4 = alloca i32, align 4
  %5 = alloca i32, align 4
  %6 = alloca i64, align 8
  store i32 %0, ptr %4, align 4
  store i32 %1, ptr %5, align 4
  store i64 %2, ptr %6, align 8
  %7 = load i32, ptr %5, align 4
  %8 = load i64, ptr %6, align 8
  %9 = call noundef i64 @_ZL15VL_EXTENDSIGN_Qim(i32 noundef %7, i64 noundef %8)
  %10 = load i64, ptr %6, align 8
  %11 = or i64 %9, %10
  ret i64 %11
}