; Function Attrs: mustprogress nofree norecurse nosync nounwind willreturn memory(none) uwtable
define internal noundef i64 @_ZL13VL_EXTENDS_QQiim(i32 %0, i32 noundef %1, i64 noundef %2) #5 {
  %4 = add nsw i32 %1, -1
  %5 = zext nneg i32 %4 to i64
  %6 = shl nuw i64 1, %5
  %7 = and i64 %6, %2
  %8 = sub i64 0, %7
  %9 = or i64 %8, %2
  ret i64 %9
}